; Function Attrs: mustprogress nounwind uwtable
define internal void @_ZN12_GLOBAL__N_135TrackControlDependencyCondBRVisitorD2Ev(ptr noundef nonnull align 8 dereferenceable(568) %0) unnamed_addr #0 align 2 {
  %2 = getelementptr inbounds nuw i8, ptr %0, i64 280
  %3 = getelementptr inbounds nuw i8, ptr %0, i64 288
  %4 = load ptr, ptr %3, align 8
  %5 = load ptr, ptr %2, align 8
  %6 = icmp eq ptr %4, %5
  br i1 %6, label %_ZN4llvm8SmallSetIPKN5clang8CFGBlockELj32ESt4lessIS4_EED2Ev.exit, label %7

7:                                                ; preds = %1
  tail call void @free(ptr noundef %4) #22
  br label %_ZN4llvm8SmallSetIPKN5clang8CFGBlockELj32ESt4lessIS4_EED2Ev.exit

_ZN4llvm8SmallSetIPKN5clang8CFGBlockELj32ESt4lessIS4_EED2Ev.exit: ; preds = %1, %7
  %8 = getelementptr inbounds nuw i8, ptr %0, i64 32
  tail call void @_ZN5clang27ControlDependencyCalculatorD2Ev(ptr noundef nonnull align 8 dereferenceable(248) %8) #22
  store ptr getelementptr inbounds nuw inrange(-16, 48) (i8, ptr @_ZTVN5clang4ento11bugreporter26TrackingBugReporterVisitorE, i64 16), ptr %0, align 8
  %9 = getelementptr inbounds nuw i8, ptr %0, i64 16
  %10 = load ptr, ptr %9, align 8
  %.not.i.i.i = icmp eq ptr %10, null
  br i1 %.not.i.i.i, label %_ZN5clang4ento11bugreporter26TrackingBugReporterVisitorD2Ev.exit, label %11

11:                                               ; preds = %_ZN4llvm8SmallSetIPKN5clang8CFGBlockELj32ESt4lessIS4_EED2Ev.exit
  %12 = getelementptr inbounds nuw i8, ptr %10, i64 8
  %13 = load i32, ptr %12, align 4
  %14 = add i32 %13, -1
  store i32 %14, ptr %12, align 4
  %15 = icmp eq i32 %14, 0
  br i1 %15, label %16, label %_ZN5clang4ento11bugreporter26TrackingBugReporterVisitorD2Ev.exit

16:                                               ; preds = %11
  %17 = load ptr, ptr %10, align 8
  %18 = getelementptr inbounds nuw i8, ptr %17, i64 8
  %19 = load ptr, ptr %18, align 8
  tail call void %19(ptr noundef nonnull align 8 dereferenceable(72) %10) #22
  br label %_ZN5clang4ento11bugreporter26TrackingBugReporterVisitorD2Ev.exit

_ZN5clang4ento11bugreporter26TrackingBugReporterVisitorD2Ev.exit: ; preds = %_ZN4llvm8SmallSetIPKN5clang8CFGBlockELj32ESt4lessIS4_EED2Ev.exit, %11, %16
  tail call void @_ZN5clang4ento18BugReporterVisitorD2Ev(ptr noundef nonnull align 8 dereferenceable(24) %0) #22
  ret void
}